ARM GAS  C:\Users\Admin\AppData\Local\Temp\cct3aIdE.s 			page 1


   1              		.cpu cortex-m3
   2              		.eabi_attribute 20, 1
   3              		.eabi_attribute 21, 1
   4              		.eabi_attribute 23, 3
   5              		.eabi_attribute 24, 1
   6              		.eabi_attribute 25, 1
   7              		.eabi_attribute 26, 1
   8              		.eabi_attribute 30, 1
   9              		.eabi_attribute 34, 1
  10              		.eabi_attribute 18, 4
  11              		.file	"use.c"
  12              		.text
  13              	.Ltext0:
  14              		.cfi_sections	.debug_frame
  15              		.section	.text.setup,"ax",%progbits
  16              		.align	1
  17              		.global	setup
  18              		.syntax unified
  19              		.thumb
  20              		.thumb_func
  21              		.fpu softvfp
  23              	setup:
  24              	.LFB65:
  25              		.file 1 "Use/use.c"
   1:Use/use.c     **** 
   2:Use/use.c     **** #include "use.h"
   3:Use/use.c     **** 
   4:Use/use.c     **** extern void setup(void){
  26              		.loc 1 4 0
  27              		.cfi_startproc
  28              		@ args = 0, pretend = 0, frame = 0
  29              		@ frame_needed = 0, uses_anonymous_args = 0
  30              		@ link register save eliminated.
   5:Use/use.c     **** 	RCC->APB2ENR |= (1<<4);
  31              		.loc 1 5 0
  32 0000 054A     		ldr	r2, .L2
  33 0002 9369     		ldr	r3, [r2, #24]
  34 0004 43F01003 		orr	r3, r3, #16
  35 0008 9361     		str	r3, [r2, #24]
   6:Use/use.c     **** 	GPIOC->CRH |= (B0110<<20);
  36              		.loc 1 6 0
  37 000a A2F58032 		sub	r2, r2, #65536
  38 000e 5368     		ldr	r3, [r2, #4]
  39 0010 43F4C003 		orr	r3, r3, #6291456
  40 0014 5360     		str	r3, [r2, #4]
   7:Use/use.c     **** }
  41              		.loc 1 7 0
  42 0016 7047     		bx	lr
  43              	.L3:
  44              		.align	2
  45              	.L2:
  46 0018 00100240 		.word	1073876992
  47              		.cfi_endproc
  48              	.LFE65:
  50              		.section	.text.loop,"ax",%progbits
  51              		.align	1
  52              		.global	loop
ARM GAS  C:\Users\Admin\AppData\Local\Temp\cct3aIdE.s 			page 2


  53              		.syntax unified
  54              		.thumb
  55              		.thumb_func
  56              		.fpu softvfp
  58              	loop:
  59              	.LFB66:
   8:Use/use.c     **** 
   9:Use/use.c     **** #define LED_OFF() {GPIOC->ODR |= (1<<13);}
  10:Use/use.c     **** #define LED_ON() {GPIOC->ODR &=~ (1<<13);}
  11:Use/use.c     **** 
  12:Use/use.c     **** extern void loop(void){
  60              		.loc 1 12 0
  61              		.cfi_startproc
  62              		@ args = 0, pretend = 0, frame = 0
  63              		@ frame_needed = 0, uses_anonymous_args = 0
  64 0000 10B5     		push	{r4, lr}
  65              	.LCFI0:
  66              		.cfi_def_cfa_offset 8
  67              		.cfi_offset 4, -8
  68              		.cfi_offset 14, -4
  13:Use/use.c     **** 
  14:Use/use.c     **** 	LED_OFF();
  69              		.loc 1 14 0
  70 0002 084C     		ldr	r4, .L6
  71 0004 E368     		ldr	r3, [r4, #12]
  72 0006 43F40053 		orr	r3, r3, #8192
  73 000a E360     		str	r3, [r4, #12]
  15:Use/use.c     **** 	HAL_Delay(250);
  74              		.loc 1 15 0
  75 000c FA20     		movs	r0, #250
  76 000e FFF7FEFF 		bl	HAL_Delay
  77              	.LVL0:
  16:Use/use.c     **** 	LED_ON();
  78              		.loc 1 16 0
  79 0012 E368     		ldr	r3, [r4, #12]
  80 0014 23F40053 		bic	r3, r3, #8192
  81 0018 E360     		str	r3, [r4, #12]
  17:Use/use.c     **** 	HAL_Delay(250);
  82              		.loc 1 17 0
  83 001a FA20     		movs	r0, #250
  84 001c FFF7FEFF 		bl	HAL_Delay
  85              	.LVL1:
  18:Use/use.c     **** }
  86              		.loc 1 18 0
  87 0020 10BD     		pop	{r4, pc}
  88              	.L7:
  89 0022 00BF     		.align	2
  90              	.L6:
  91 0024 00100140 		.word	1073811456
  92              		.cfi_endproc
  93              	.LFE66:
  95              		.text
  96              	.Letext0:
  97              		.file 2 "c:\\program files (x86)\\gnu tools arm embedded\\7 2018-q2-update\\arm-none-eabi\\include
  98              		.file 3 "c:\\program files (x86)\\gnu tools arm embedded\\7 2018-q2-update\\arm-none-eabi\\include
  99              		.file 4 "Drivers/CMSIS/Include/core_cm3.h"
 100              		.file 5 "Drivers/CMSIS/Device/ST/STM32F1xx/Include/system_stm32f1xx.h"
ARM GAS  C:\Users\Admin\AppData\Local\Temp\cct3aIdE.s 			page 3


 101              		.file 6 "Drivers/CMSIS/Device/ST/STM32F1xx/Include/stm32f103xb.h"
 102              		.file 7 "Drivers/STM32F1xx_HAL_Driver/Inc/stm32f1xx_hal.h"
ARM GAS  C:\Users\Admin\AppData\Local\Temp\cct3aIdE.s 			page 4


DEFINED SYMBOLS
                            *ABS*:00000000 use.c
C:\Users\Admin\AppData\Local\Temp\cct3aIdE.s:16     .text.setup:00000000 $t
C:\Users\Admin\AppData\Local\Temp\cct3aIdE.s:23     .text.setup:00000000 setup
C:\Users\Admin\AppData\Local\Temp\cct3aIdE.s:46     .text.setup:00000018 $d
C:\Users\Admin\AppData\Local\Temp\cct3aIdE.s:51     .text.loop:00000000 $t
C:\Users\Admin\AppData\Local\Temp\cct3aIdE.s:58     .text.loop:00000000 loop
C:\Users\Admin\AppData\Local\Temp\cct3aIdE.s:91     .text.loop:00000024 $d

UNDEFINED SYMBOLS
HAL_Delay
